; Function Attrs: mustprogress uwtable
define internal void @"_ZNSt17_Function_handlerIFvRK7svectorIN3sat7literalEjEEZNS1_14anf_simplifier12compile_xorsER10ptr_vectorINS1_6clauseEERN2dd6solverEE3$_0E9_M_invokeERKSt9_Any_dataS5_"(ptr nocapture noundef nonnull readonly align 8 dereferenceable(16) %__functor, ptr nocapture noundef nonnull readonly align 8 dereferenceable(8) %__args) #3 align 2 {
entry:
  %call.val = load ptr, ptr %__functor, align 8
  %0 = getelementptr inbounds i8, ptr %__functor, i64 8
  %call.val1 = load ptr, ptr %0, align 8
  tail call void @_ZN3sat14anf_simplifier7add_xorERK7svectorINS_7literalEjERN2dd6solverE(ptr nonnull align 8 poison, ptr noundef nonnull align 8 dereferenceable(8) %__args, ptr noundef nonnull align 8 dereferenceable(208) %call.val1)
  %m_num_xors.i.i.i = getelementptr inbounds i8, ptr %call.val, i64 44
  %1 = load i32, ptr %m_num_xors.i.i.i, align 4
  %inc.i.i.i = add i32 %1, 1
  store i32 %inc.i.i.i, ptr %m_num_xors.i.i.i, align 4
  ret void
}